; Function Attrs: cold nounwind optsize uwtable
define internal noundef i32 @decode_init(ptr noundef %0) #0 {
._crit_edge:
  %1 = getelementptr inbounds nuw i8, ptr %0, i64 32
  %2 = load ptr, ptr %1, align 8, !tbaa !4
  %3 = getelementptr inbounds nuw i8, ptr %2, i64 32944
  store ptr %0, ptr %3, align 16, !tbaa !27
  %4 = getelementptr inbounds nuw i8, ptr %2, i64 32952
  tail call void @ff_mpadsp_init(ptr noundef nonnull %4) #14
  %5 = getelementptr inbounds nuw i8, ptr %0, i64 392
  %6 = load i32, ptr %5, align 8, !tbaa !33
  %7 = icmp eq i32 %6, 1
  %8 = getelementptr inbounds nuw i8, ptr %0, i64 24
  %9 = load i32, ptr %8, align 8, !tbaa !34
  %.not = icmp eq i32 %9, 86030
  %spec.select = select i1 %.not, i32 6, i32 1
  %.sink = select i1 %7, i32 %spec.select, i32 6
  %10 = getelementptr inbounds nuw i8, ptr %0, i64 348
  store i32 %.sink, ptr %10, align 4, !tbaa !35
  %11 = getelementptr inbounds nuw i8, ptr %0, i64 528
  %12 = load i32, ptr %11, align 8, !tbaa !36
  %13 = getelementptr inbounds nuw i8, ptr %2, i64 32936
  store i32 %12, ptr %13, align 8, !tbaa !37
  %14 = icmp eq i32 %9, 86029
  br i1 %14, label %15, label %17

15:                                               ; preds = %._crit_edge
  %16 = getelementptr inbounds nuw i8, ptr %2, i64 32928
  store i32 1, ptr %16, align 16, !tbaa !38
  br label %17

17:                                               ; preds = %15, %._crit_edge
  %18 = tail call i32 @pthread_once(ptr noundef nonnull @decode_init.init_static_once, ptr noundef nonnull @decode_init_static) #14
  ret i32 0
}